; Function Attrs: nounwind uwtable
define ptr @l_Lean_Meta_congrArg_x3f___lambda__2(ptr noundef %0, ptr noundef %1, ptr noundef %2, ptr noundef %3, ptr noundef %4, ptr noundef %5, ptr noundef %6) local_unnamed_addr #0 {
  tail call void @lean_inc_heartbeat() #5
  %8 = tail call noalias ptr @mi_malloc_small(i64 noundef 24) #5
  %9 = icmp eq ptr %8, null
  br i1 %9, label %10, label %lean_alloc_ctor.exit

10:                                               ; preds = %7
  tail call void @lean_internal_panic_out_of_memory() #6
  unreachable

lean_alloc_ctor.exit:                             ; preds = %7
  %11 = getelementptr inbounds nuw i8, ptr %8, i64 4
  store i32 1, ptr %8, align 4, !tbaa !4
  store i32 16908312, ptr %11, align 4
  %12 = getelementptr inbounds nuw i8, ptr %8, i64 8
  store ptr %1, ptr %12, align 8, !tbaa !10
  %13 = getelementptr inbounds nuw i8, ptr %8, i64 16
  store ptr inttoptr (i64 1 to ptr), ptr %13, align 8, !tbaa !10
  %14 = tail call ptr @lean_array_mk(ptr noundef nonnull %8) #5
  %15 = ptrtoint ptr %14 to i64
  %16 = and i64 %15, 1
  %.not = icmp eq i64 %16, 0
  br i1 %.not, label %17, label %lean_inc.exit

17:                                               ; preds = %lean_alloc_ctor.exit
  %.val.i = load i32, ptr %14, align 4, !tbaa !4
  %18 = icmp sgt i32 %.val.i, 0
  br i1 %18, label %19, label %21, !prof !9

19:                                               ; preds = %17
  %20 = add nuw i32 %.val.i, 1
  store i32 %20, ptr %14, align 4, !tbaa !4
  br label %lean_inc.exit

21:                                               ; preds = %17
  %.not.i19 = icmp eq i32 %.val.i, 0
  br i1 %.not.i19, label %lean_inc.exit, label %22

22:                                               ; preds = %21
  tail call void @lean_inc_ref_cold(ptr noundef nonnull %14) #5
  br label %lean_inc.exit

lean_inc.exit:                                    ; preds = %22, %21, %19, %lean_alloc_ctor.exit
  %23 = tail call ptr @l_Lean_Expr_beta(ptr noundef %0, ptr noundef %14) #5
  %24 = tail call ptr @l_Lean_Meta_mkForallFVars(ptr noundef %14, ptr noundef %23, i8 noundef zeroext 0, i8 noundef zeroext 1, i8 noundef zeroext 1, ptr noundef %2, ptr noundef %3, ptr noundef %4, ptr noundef %5, ptr noundef %6) #5
  br i1 %.not, label %25, label %lean_dec.exit

25:                                               ; preds = %lean_inc.exit
  %26 = load i32, ptr %14, align 4, !tbaa !4
  %27 = icmp sgt i32 %26, 1
  br i1 %27, label %28, label %30, !prof !9

28:                                               ; preds = %25
  %29 = add nsw i32 %26, -1
  store i32 %29, ptr %14, align 4, !tbaa !4
  br label %lean_dec.exit

30:                                               ; preds = %25
  %.not.i = icmp eq i32 %26, 0
  br i1 %.not.i, label %lean_dec.exit, label %31

31:                                               ; preds = %30
  tail call void @lean_dec_ref_cold(ptr noundef nonnull %14) #5
  br label %lean_dec.exit

lean_dec.exit:                                    ; preds = %31, %30, %28, %lean_inc.exit
  ret ptr %24
}